---
triple:          'x86_64-apple-darwin'
binary-path:     test_highscore
relocations:
  - { offsetInCU: 0x5E87, offset: 0x5E87, size: 0x8, addend: 0x0, symName: __ZNSt3__124__put_character_sequenceB7v160006IcNS_11char_traitsIcEEEERNS_13basic_ostreamIT_T0_EES7_PKS4_m, symObjAddr: 0xC50, symBinAddr: 0x1000046F0, symSize: 0x150 }
  - { offsetInCU: 0x8A29, offset: 0x8A29, size: 0x8, addend: 0x0, symName: __ZNSt3__116__pad_and_outputB7v160006IcNS_11char_traitsIcEEEENS_19ostreambuf_iteratorIT_T0_EES6_PKS4_S8_S8_RNS_8ios_baseES4_, symObjAddr: 0xDA0, symBinAddr: 0x100004840, symSize: 0x145 }
  - { offsetInCU: 0xC685, offset: 0xC685, size: 0x8, addend: 0x0, symName: _main, symObjAddr: 0x0, symBinAddr: 0x100003AA0, symSize: 0xB90 }
  - { offsetInCU: 0xF86D, offset: 0xF86D, size: 0x8, addend: 0x0, symName: __ZNSt3__16vectorINS0_INS_12basic_stringIcNS_11char_traitsIcEENS_9allocatorIcEEEENS4_IS6_EEEENS4_IS8_EEED1B7v160006Ev, symObjAddr: 0xB90, symBinAddr: 0x100004630, symSize: 0xB0 }
  - { offsetInCU: 0x94D8, offset: 0x19528, size: 0x8, addend: 0x0, symName: __ZNSt3__130__uninitialized_allocator_copyB7v160006INS_9allocatorINS_12basic_stringIcNS_11char_traitsIcEENS1_IcEEEEEEPKS6_S9_PS6_EET2_RT_T0_T1_SB_, symObjAddr: 0x9620, symBinAddr: 0x10000DEF0, symSize: 0x110 }
  - { offsetInCU: 0x9A9A, offset: 0x19AEA, size: 0x8, addend: 0x0, symName: __ZNSt3__130__uninitialized_allocator_copyB7v160006INS_9allocatorINS_12basic_stringIcNS_11char_traitsIcEENS1_IcEEEEEEPS6_S8_S8_EET2_RT_T0_T1_S9_, symObjAddr: 0x9B90, symBinAddr: 0x10000E460, symSize: 0x110 }
  - { offsetInCU: 0x9FD3, offset: 0x1A023, size: 0x8, addend: 0x0, symName: __ZNSt3__120__throw_length_errorB7v160006EPKc, symObjAddr: 0x8FE0, symBinAddr: 0x10000D8B0, symSize: 0x50 }
  - { offsetInCU: 0xA2E9, offset: 0x1A339, size: 0x8, addend: 0x0, symName: __ZNSt3__130__uninitialized_allocator_copyB7v160006INS_9allocatorINS_12basic_stringIcNS_11char_traitsIcEENS1_IcEEEEEEPPcS9_PS6_EET2_RT_T0_T1_SB_, symObjAddr: 0x9400, symBinAddr: 0x10000DCD0, symSize: 0x100 }
  - { offsetInCU: 0xB28F, offset: 0x1B2DF, size: 0x8, addend: 0x0, symName: __ZSt28__throw_bad_array_new_lengthB7v160006v, symObjAddr: 0x9060, symBinAddr: 0x10000D930, symSize: 0x40 }
  - { offsetInCU: 0xE1CB, offset: 0x1E21B, size: 0x8, addend: 0x0, symName: __Z14initiateCityDBNSt3__112basic_stringIcNS_11char_traitsIcEENS_9allocatorIcEEEE, symObjAddr: 0x0, symBinAddr: 0x100004990, symSize: 0x18D0 }
  - { offsetInCU: 0x141DC, offset: 0x2422C, size: 0x8, addend: 0x0, symName: __ZL8createDBPKc, symObjAddr: 0x1940, symBinAddr: 0x1000062D0, symSize: 0x190 }
  - { offsetInCU: 0x1455A, offset: 0x245AA, size: 0x8, addend: 0x0, symName: __ZNSt3__112basic_stringIcNS_11char_traitsIcEENS_9allocatorIcEEE17__assign_externalEPKcm, symObjAddr: 0x9CA0, symBinAddr: 0x10000E570, symSize: 0x150 }
  - { offsetInCU: 0x14BC4, offset: 0x24C14, size: 0x8, addend: 0x0, symName: __ZNKSt3__112basic_stringIcNS_11char_traitsIcEENS_9allocatorIcEEE20__throw_length_errorB7v160006Ev, symObjAddr: 0x8FD0, symBinAddr: 0x10000D8A0, symSize: 0x10 }
  - { offsetInCU: 0x14BEE, offset: 0x24C3E, size: 0x8, addend: 0x0, symName: __ZNSt3__120__throw_length_errorB7v160006EPKc, symObjAddr: 0x8FE0, symBinAddr: 0x10000D8B0, symSize: 0x50 }
  - { offsetInCU: 0x14BF9, offset: 0x24C49, size: 0x8, addend: 0x0, symName: __Z19get_city_sql_stringNSt3__112basic_stringIcNS_11char_traitsIcEENS_9allocatorIcEEEE, symObjAddr: 0x18D0, symBinAddr: 0x100006260, symSize: 0x70 }
  - { offsetInCU: 0x15015, offset: 0x25065, size: 0x8, addend: 0x0, symName: __Z15initiateWorldDBNSt3__112basic_stringIcNS_11char_traitsIcEENS_9allocatorIcEEEE, symObjAddr: 0x1AD0, symBinAddr: 0x100006460, symSize: 0x890 }
  - { offsetInCU: 0x17240, offset: 0x27290, size: 0x8, addend: 0x0, symName: __Z15select_callbackPviPPcS1_, symObjAddr: 0x2360, symBinAddr: 0x100006CF0, symSize: 0x80 }
  - { offsetInCU: 0x173F6, offset: 0x27446, size: 0x8, addend: 0x0, symName: __ZNSt3__16vectorINS_12basic_stringIcNS_11char_traitsIcEENS_9allocatorIcEEEENS4_IS6_EEEC1IPPcLi0EEET_SC_, symObjAddr: 0x92A0, symBinAddr: 0x10000DB70, symSize: 0xD0 }
  - { offsetInCU: 0x17680, offset: 0x276D0, size: 0x8, addend: 0x0, symName: __ZNSt3__16vectorINS0_INS_12basic_stringIcNS_11char_traitsIcEENS_9allocatorIcEEEENS4_IS6_EEEENS4_IS8_EEE24__emplace_back_slow_pathIJRPPcSD_EEEvDpOT_, symObjAddr: 0x90A0, symBinAddr: 0x10000D970, symSize: 0x200 }
  - { offsetInCU: 0x17FE8, offset: 0x28038, size: 0x8, addend: 0x0, symName: __Z11select_stmtNSt3__112basic_stringIcNS_11char_traitsIcEENS_9allocatorIcEEEEPKc, symObjAddr: 0x23E0, symBinAddr: 0x100006D70, symSize: 0x1E0 }
  - { offsetInCU: 0x18A69, offset: 0x28AB9, size: 0x8, addend: 0x0, symName: __Z15insertMoneyDataNSt3__16vectorIiNS_9allocatorIiEEEENS_12basic_stringIcNS_11char_traitsIcEENS1_IcEEEE, symObjAddr: 0x2680, symBinAddr: 0x100006F50, symSize: 0xAE0 }
  - { offsetInCU: 0x1CEE4, offset: 0x2CF34, size: 0x8, addend: 0x0, symName: __Z14insertTimeDataNSt3__16vectorIdNS_9allocatorIdEEEENS_12basic_stringIcNS_11char_traitsIcEENS1_IcEEEE, symObjAddr: 0x3160, symBinAddr: 0x100007A30, symSize: 0xAF0 }
  - { offsetInCU: 0x20F9F, offset: 0x30FEF, size: 0x8, addend: 0x0, symName: __Z15insertWorldDataNSt3__112basic_stringIcNS_11char_traitsIcEENS_9allocatorIcEEEES5_iS5_i, symObjAddr: 0x3C50, symBinAddr: 0x100008520, symSize: 0x920 }
  - { offsetInCU: 0x240D8, offset: 0x34128, size: 0x8, addend: 0x0, symName: __Z21insertCompanyTimeDataNSt3__16vectorIdNS_9allocatorIdEEEENS_12basic_stringIcNS_11char_traitsIcEENS1_IcEEEES8_, symObjAddr: 0x4570, symBinAddr: 0x100008E40, symSize: 0x10A0 }
  - { offsetInCU: 0x2A132, offset: 0x3A182, size: 0x8, addend: 0x0, symName: __Z22insertCompanyDatapointNSt3__112basic_stringIcNS_11char_traitsIcEENS_9allocatorIcEEEEiiS5_S5_, symObjAddr: 0x5610, symBinAddr: 0x100009EE0, symSize: 0x8F0 }
  - { offsetInCU: 0x2CEFE, offset: 0x3CF4E, size: 0x8, addend: 0x0, symName: __Z15insertHighScoreNSt3__16vectorIdNS_9allocatorIdEEEENS_12basic_stringIcNS_11char_traitsIcEENS1_IcEEEES8_S8_, symObjAddr: 0x5F00, symBinAddr: 0x10000A7D0, symSize: 0x860 }
  - { offsetInCU: 0x30193, offset: 0x401E3, size: 0x8, addend: 0x0, symName: __Z17insertHighScorePGNSt3__16vectorIdNS_9allocatorIdEEEENS_12basic_stringIcNS_11char_traitsIcEENS1_IcEEEES8_S8_, symObjAddr: 0x6760, symBinAddr: 0x10000B030, symSize: 0x990 }
  - { offsetInCU: 0x3264B, offset: 0x4269B, size: 0x8, addend: 0x0, symName: __Z17insertHighScorePGNSt3__16vectorIdNS_9allocatorIdEEEENS_12basic_stringIcNS_11char_traitsIcEENS1_IcEEEES8_S8_.cold.1, symObjAddr: 0xA090, symBinAddr: 0x10000FDE0, symSize: 0x50 }
  - { offsetInCU: 0x328F3, offset: 0x42943, size: 0x8, addend: 0x0, symName: __Z17insertHighScorePGNSt3__16vectorIdNS_9allocatorIdEEEENS_12basic_stringIcNS_11char_traitsIcEENS1_IcEEEES8_S8_.cold.2, symObjAddr: 0xA0E0, symBinAddr: 0x10000FE30, symSize: 0x30 }
  - { offsetInCU: 0x32A07, offset: 0x42A57, size: 0x8, addend: 0x0, symName: __ZNSt3__16vectorINS_12basic_stringIcNS_11char_traitsIcEENS_9allocatorIcEEEENS4_IS6_EEED1B7v160006Ev, symObjAddr: 0x70F0, symBinAddr: 0x10000B9C0, symSize: 0x70 }
  - { offsetInCU: 0x32F5C, offset: 0x42FAC, size: 0x8, addend: 0x0, symName: __Z15getHighScoresPGNSt3__112basic_stringIcNS_11char_traitsIcEENS_9allocatorIcEEEEi, symObjAddr: 0x7160, symBinAddr: 0x10000BA30, symSize: 0x8F0 }
  - { offsetInCU: 0x35B8E, offset: 0x45BDE, size: 0x8, addend: 0x0, symName: __ZNSt3__16vectorINS_12basic_stringIcNS_11char_traitsIcEENS_9allocatorIcEEEENS4_IS6_EEE21__push_back_slow_pathIS6_EEvOT_, symObjAddr: 0x9730, symBinAddr: 0x10000E000, symSize: 0x190 }
  - { offsetInCU: 0x362B2, offset: 0x46302, size: 0x8, addend: 0x0, symName: __ZNSt3__16vectorINS0_INS_12basic_stringIcNS_11char_traitsIcEENS_9allocatorIcEEEENS4_IS6_EEEENS4_IS8_EEE21__push_back_slow_pathIRKS8_EEvOT_, symObjAddr: 0x98C0, symBinAddr: 0x10000E190, symSize: 0x200 }
  - { offsetInCU: 0x36BD4, offset: 0x46C24, size: 0x8, addend: 0x0, symName: __ZNKSt3__16vectorINS_12basic_stringIcNS_11char_traitsIcEENS_9allocatorIcEEEENS4_IS6_EEE20__throw_length_errorB7v160006Ev, symObjAddr: 0x93F0, symBinAddr: 0x10000DCC0, symSize: 0x10 }
  - { offsetInCU: 0x36BFE, offset: 0x46C4E, size: 0x8, addend: 0x0, symName: __ZNSt3__130__uninitialized_allocator_copyB7v160006INS_9allocatorINS_12basic_stringIcNS_11char_traitsIcEENS1_IcEEEEEEPPcS9_PS6_EET2_RT_T0_T1_SB_, symObjAddr: 0x9400, symBinAddr: 0x10000DCD0, symSize: 0x100 }
  - { offsetInCU: 0x36C09, offset: 0x46C59, size: 0x8, addend: 0x0, symName: __Z15getHighScoresPGNSt3__112basic_stringIcNS_11char_traitsIcEENS_9allocatorIcEEEEi.cold.1, symObjAddr: 0xA110, symBinAddr: 0x10000FE60, symSize: 0x50 }
  - { offsetInCU: 0x36EB1, offset: 0x46F01, size: 0x8, addend: 0x0, symName: __ZNSt3__128__exception_guard_exceptionsINS_6vectorINS_12basic_stringIcNS_11char_traitsIcEENS_9allocatorIcEEEENS5_IS7_EEE16__destroy_vectorEED1B7v160006Ev, symObjAddr: 0x9370, symBinAddr: 0x10000DC40, symSize: 0x80 }
  - { offsetInCU: 0x37175, offset: 0x471C5, size: 0x8, addend: 0x0, symName: __Z18insertConsumerDataNSt3__16vectorIdNS_9allocatorIdEEEENS_12basic_stringIcNS_11char_traitsIcEENS1_IcEEEES8_S8_, symObjAddr: 0x7A50, symBinAddr: 0x10000C320, symSize: 0xCC0 }
  - { offsetInCU: 0x3C2E3, offset: 0x4C333, size: 0x8, addend: 0x0, symName: __Z20getDatabaseParameterNSt3__112basic_stringIcNS_11char_traitsIcEENS_9allocatorIcEEEES5_, symObjAddr: 0x8710, symBinAddr: 0x10000CFE0, symSize: 0x4A0 }
  - { offsetInCU: 0x3DFA1, offset: 0x4DFF1, size: 0x8, addend: 0x0, symName: __Z24testPostgreSQLConnectionv, symObjAddr: 0x8BB0, symBinAddr: 0x10000D480, symSize: 0x410 }
  - { offsetInCU: 0x3EA5A, offset: 0x4EAAA, size: 0x8, addend: 0x0, symName: __Z14get_sql_stringv, symObjAddr: 0x8FC0, symBinAddr: 0x10000D890, symSize: 0x10 }
  - { offsetInCU: 0x3EAA4, offset: 0x4EAF4, size: 0x8, addend: 0x0, symName: __ZNSt12length_errorC1B7v160006EPKc, symObjAddr: 0x9030, symBinAddr: 0x10000D900, symSize: 0x30 }
  - { offsetInCU: 0x3EEA4, offset: 0x4EEF4, size: 0x8, addend: 0x0, symName: __ZNKSt3__16vectorINS0_INS_12basic_stringIcNS_11char_traitsIcEENS_9allocatorIcEEEENS4_IS6_EEEENS4_IS8_EEE20__throw_length_errorB7v160006Ev, symObjAddr: 0x9610, symBinAddr: 0x10000DEE0, symSize: 0x10 }
  - { offsetInCU: 0x3EECE, offset: 0x4EF1E, size: 0x8, addend: 0x0, symName: __ZNSt3__130__uninitialized_allocator_copyB7v160006INS_9allocatorINS_12basic_stringIcNS_11char_traitsIcEENS1_IcEEEEEEPKS6_S9_PS6_EET2_RT_T0_T1_SB_, symObjAddr: 0x9620, symBinAddr: 0x10000DEF0, symSize: 0x110 }
  - { offsetInCU: 0x3EED9, offset: 0x4EF29, size: 0x8, addend: 0x0, symName: __ZNSt3__114__split_bufferINS_6vectorINS_12basic_stringIcNS_11char_traitsIcEENS_9allocatorIcEEEENS5_IS7_EEEERNS5_IS9_EEED1Ev, symObjAddr: 0x9550, symBinAddr: 0x10000DE20, symSize: 0xC0 }
  - { offsetInCU: 0x3F3AD, offset: 0x4F3FD, size: 0x8, addend: 0x0, symName: __ZNSt3__16vectorINS_12basic_stringIcNS_11char_traitsIcEENS_9allocatorIcEEEENS4_IS6_EEEC1IPPcLi0EEET_SC_.cold.1, symObjAddr: 0xA160, symBinAddr: 0x10000FEB0, symSize: 0x4D }
  - { offsetInCU: 0x3F6EE, offset: 0x4F73E, size: 0x8, addend: 0x0, symName: __ZNSt3__128__exception_guard_exceptionsINS_29_AllocatorDestroyRangeReverseINS_9allocatorINS_12basic_stringIcNS_11char_traitsIcEENS2_IcEEEEEEPS7_EEED1B7v160006Ev, symObjAddr: 0x9500, symBinAddr: 0x10000DDD0, symSize: 0x50 }
  - { offsetInCU: 0x3FBF6, offset: 0x4FC46, size: 0x8, addend: 0x0, symName: __ZNSt3__16vectorINS_12basic_stringIcNS_11char_traitsIcEENS_9allocatorIcEEEENS4_IS6_EEEC2ERKS8_, symObjAddr: 0x9AC0, symBinAddr: 0x10000E390, symSize: 0xD0 }
  - { offsetInCU: 0x9A94, offset: 0x59E85, size: 0x8, addend: 0x0, symName: __ZN17PostgreSQLManagerC2Ev, symObjAddr: 0x0, symBinAddr: 0x10000E6C0, symSize: 0x40 }
  - { offsetInCU: 0x9C4A, offset: 0x5A03B, size: 0x8, addend: 0x0, symName: __ZN17PostgreSQLManager24configureFromEnvironmentEv, symObjAddr: 0x40, symBinAddr: 0x10000E700, symSize: 0xA40 }
  - { offsetInCU: 0xD94D, offset: 0x5DD3E, size: 0x8, addend: 0x0, symName: __ZN17PostgreSQLManagerC1Ev, symObjAddr: 0xA80, symBinAddr: 0x10000F140, symSize: 0x40 }
  - { offsetInCU: 0xDB25, offset: 0x5DF16, size: 0x8, addend: 0x0, symName: __ZN17PostgreSQLManagerD2Ev, symObjAddr: 0xAC0, symBinAddr: 0x10000F180, symSize: 0x40 }
  - { offsetInCU: 0xDC66, offset: 0x5E057, size: 0x8, addend: 0x0, symName: __ZN17PostgreSQLManager10disconnectEv, symObjAddr: 0xB00, symBinAddr: 0x10000F1C0, symSize: 0xB0 }
  - { offsetInCU: 0xDD99, offset: 0x5E18A, size: 0x8, addend: 0x0, symName: __ZN17PostgreSQLManagerD1Ev, symObjAddr: 0xBC0, symBinAddr: 0x10000F270, symSize: 0x40 }
  - { offsetInCU: 0xDF56, offset: 0x5E347, size: 0x8, addend: 0x0, symName: __ZN17PostgreSQLManager7connectEv, symObjAddr: 0xC00, symBinAddr: 0x10000F2B0, symSize: 0x180 }
  - { offsetInCU: 0xE31E, offset: 0x5E70F, size: 0x8, addend: 0x0, symName: __ZN17PostgreSQLManager11isConnectedEv, symObjAddr: 0xD80, symBinAddr: 0x10000F430, symSize: 0x20 }
  - { offsetInCU: 0xE34E, offset: 0x5E73F, size: 0x8, addend: 0x0, symName: __ZN17PostgreSQLManager12executeQueryERKNSt3__112basic_stringIcNS0_11char_traitsIcEENS0_9allocatorIcEEEE, symObjAddr: 0xDA0, symBinAddr: 0x10000F450, symSize: 0x230 }
  - { offsetInCU: 0xE883, offset: 0x5EC74, size: 0x8, addend: 0x0, symName: __ZN17PostgreSQLManager14executeCommandERKNSt3__112basic_stringIcNS0_11char_traitsIcEENS0_9allocatorIcEEEE, symObjAddr: 0xFD0, symBinAddr: 0x10000F680, symSize: 0x30 }
  - { offsetInCU: 0xE8FC, offset: 0x5ECED, size: 0x8, addend: 0x0, symName: __ZN17PostgreSQLManager16prepareStatementERKNSt3__112basic_stringIcNS0_11char_traitsIcEENS0_9allocatorIcEEEES8_, symObjAddr: 0x1000, symBinAddr: 0x10000F6B0, symSize: 0x1A0 }
  - { offsetInCU: 0xF261, offset: 0x5F652, size: 0x8, addend: 0x0, symName: __ZN17PostgreSQLManager15executePreparedERKNSt3__112basic_stringIcNS0_11char_traitsIcEENS0_9allocatorIcEEEERKNS0_6vectorIS6_NS4_IS6_EEEE, symObjAddr: 0x11A0, symBinAddr: 0x10000F850, symSize: 0x4C0 }
  - { offsetInCU: 0xFF8C, offset: 0x6037D, size: 0x8, addend: 0x0, symName: __ZNKSt3__16vectorIPKcNS_9allocatorIS2_EEE20__throw_length_errorB7v160006Ev, symObjAddr: 0x17F0, symBinAddr: 0x10000FDD0, symSize: 0x10 }
  - { offsetInCU: 0xFFC1, offset: 0x603B2, size: 0x8, addend: 0x0, symName: __ZN17PostgreSQLManager12getLastErrorEv, symObjAddr: 0x1660, symBinAddr: 0x10000FD10, symSize: 0xC0 }
...
